target datalayout = "e-m:e-p270:32:32-p271:32:32-p272:64:64-i64:64-i128:128-f80:128-n8:16:32:64-S128"
target triple = "x86_64-pc-linux-gnu"

%class.cmCursesStringWidget = type <{ %class.cmCursesWidget.base, i8, [3 x i8], %"class.std::__cxx11::basic_string", i8, [7 x i8] }>
%class.cmCursesWidget.base = type <{ ptr, i32, [4 x i8], %"class.std::__cxx11::basic_string", ptr, i32 }>
%"class.std::__cxx11::basic_string" = type { %"struct.std::__cxx11::basic_string<char>::_Alloc_hider", i64, %union.anon }
%"struct.std::__cxx11::basic_string<char>::_Alloc_hider" = type { ptr }
%union.anon = type { i64, [8 x i8] }
%class.cmCursesWidget = type <{ ptr, i32, [4 x i8], %"class.std::__cxx11::basic_string", ptr, i32, [4 x i8] }>

; Function Attrs: mustprogress uwtable
define dso_local void @_ZN20cmCursesStringWidgetC2Eiiii(ptr noundef nonnull align 8 dereferenceable(97) %0, i32 noundef %1, i32 noundef %2, i32 noundef %3, i32 noundef %4) unnamed_addr #0 align 2 personality ptr @__gxx_personality_v0 {
  %6 = alloca ptr, align 8
  %7 = alloca i32, align 4
  %8 = alloca i32, align 4
  %9 = alloca i32, align 4
  %10 = alloca i32, align 4
  %11 = alloca ptr, align 8
  %12 = alloca i32, align 4
  store ptr %0, ptr %6, align 8
  store i32 %1, ptr %7, align 4
  store i32 %2, ptr %8, align 4
  store i32 %3, ptr %9, align 4
  store i32 %4, ptr %10, align 4
  %13 = load ptr, ptr %6, align 8
  %14 = load i32, ptr %7, align 4
  %15 = load i32, ptr %8, align 4
  %16 = load i32, ptr %9, align 4
  %17 = load i32, ptr %10, align 4
  call void @_ZN14cmCursesWidgetC2Eiiii(ptr noundef nonnull align 8 dereferenceable(60) %13, i32 noundef %14, i32 noundef %15, i32 noundef %16, i32 noundef %17)
  store ptr getelementptr inbounds ({ [12 x ptr] }, ptr @_ZTV20cmCursesStringWidget, i32 0, i32 0, i32 2), ptr %13, align 8
  %18 = getelementptr inbounds %class.cmCursesStringWidget, ptr %13, i32 0, i32 3
  call void @_ZNSt7__cxx1112basic_stringIcSt11char_traitsIcESaIcEEC1Ev(ptr noundef nonnull align 8 dereferenceable(32) %18) #6
  %19 = getelementptr inbounds %class.cmCursesStringWidget, ptr %13, i32 0, i32 1
  store i8 0, ptr %19, align 4
  %20 = getelementptr inbounds %class.cmCursesWidget, ptr %13, i32 0, i32 1
  store i32 3, ptr %20, align 8
  %21 = invoke noundef zeroext i1 @_ZN13cmCursesColor9HasColorsEv()
          to label %22 unwind label %32

22:                                               ; preds = %5
  br i1 %21, label %23, label %36

23:                                               ; preds = %22
  %24 = getelementptr inbounds %class.cmCursesWidget, ptr %13, i32 0, i32 4
  %25 = load ptr, ptr %24, align 8
  %26 = invoke i32 @set_field_fore(ptr noundef %25, i32 noundef 768)
          to label %27 unwind label %32

27:                                               ; preds = %23
  %28 = getelementptr inbounds %class.cmCursesWidget, ptr %13, i32 0, i32 4
  %29 = load ptr, ptr %28, align 8
  %30 = invoke i32 @set_field_back(ptr noundef %29, i32 noundef 768)
          to label %31 unwind label %32

31:                                               ; preds = %27
  br label %45

32:                                               ; preds = %45, %40, %36, %27, %23, %5
  %33 = landingpad { ptr, i32 }
          cleanup
  %34 = extractvalue { ptr, i32 } %33, 0
  store ptr %34, ptr %11, align 8
  %35 = extractvalue { ptr, i32 } %33, 1
  store i32 %35, ptr %12, align 4
  call void @_ZNSt7__cxx1112basic_stringIcSt11char_traitsIcESaIcEED1Ev(ptr noundef nonnull align 8 dereferenceable(32) %18) #6
  call void @_ZN14cmCursesWidgetD2Ev(ptr noundef nonnull align 8 dereferenceable(60) %13) #6
  br label %50

36:                                               ; preds = %22
  %37 = getelementptr inbounds %class.cmCursesWidget, ptr %13, i32 0, i32 4
  %38 = load ptr, ptr %37, align 8
  %39 = invoke i32 @set_field_fore(ptr noundef %38, i32 noundef 0)
          to label %40 unwind label %32

40:                                               ; preds = %36
  %41 = getelementptr inbounds %class.cmCursesWidget, ptr %13, i32 0, i32 4
  %42 = load ptr, ptr %41, align 8
  %43 = invoke i32 @set_field_back(ptr noundef %42, i32 noundef 65536)
          to label %44 unwind label %32

44:                                               ; preds = %40
  br label %45

45:                                               ; preds = %44, %31
  %46 = getelementptr inbounds %class.cmCursesWidget, ptr %13, i32 0, i32 4
  %47 = load ptr, ptr %46, align 8
  %48 = invoke i32 @field_opts_off(ptr noundef %47, i32 noundef 512)
          to label %49 unwind label %32

49:                                               ; preds = %45
  ret void

50:                                               ; preds = %32
  %51 = load ptr, ptr %11, align 8
  %52 = load i32, ptr %12, align 4
  %53 = insertvalue { ptr, i32 } poison, ptr %51, 0
  %54 = insertvalue { ptr, i32 } %53, i32 %52, 1
  resume { ptr, i32 } %54
}