; Function Attrs: mustprogress uwtable
define dso_local void @_ZN20cmCursesStringWidgetC2Eiiii(ptr noundef nonnull align 8 dereferenceable(97) %0, i32 noundef %1, i32 noundef %2, i32 noundef %3, i32 noundef %4) unnamed_addr #0 align 2 personality ptr @__gxx_personality_v0 {
  tail call void @_ZN14cmCursesWidgetC2Eiiii(ptr noundef nonnull align 8 dereferenceable(60) %0, i32 noundef %1, i32 noundef %2, i32 noundef %3, i32 noundef %4)
  store ptr getelementptr inbounds ({ [12 x ptr] }, ptr @_ZTV20cmCursesStringWidget, i64 0, i32 0, i64 2), ptr %0, align 8
  %6 = getelementptr inbounds i8, ptr %0, i64 64
  tail call void @_ZNSt7__cxx1112basic_stringIcSt11char_traitsIcESaIcEEC1Ev(ptr noundef nonnull align 8 dereferenceable(32) %6) #8
  %7 = getelementptr inbounds i8, ptr %0, i64 60
  store i8 0, ptr %7, align 4
  %8 = getelementptr inbounds i8, ptr %0, i64 8
  store i32 3, ptr %8, align 8
  %9 = invoke noundef zeroext i1 @_ZN13cmCursesColor9HasColorsEv()
          to label %10 unwind label %15

10:                                               ; preds = %5
  %11 = getelementptr inbounds i8, ptr %0, i64 48
  %12 = load ptr, ptr %11, align 8
  br i1 %9, label %13, label %17

13:                                               ; preds = %10
  %14 = invoke i32 @set_field_fore(ptr noundef %12, i32 noundef 768)
          to label %.invoke unwind label %15

15:                                               ; preds = %.invoke, %22, %17, %13, %5
  %16 = landingpad { ptr, i32 }
          cleanup
  tail call void @_ZNSt7__cxx1112basic_stringIcSt11char_traitsIcESaIcEED1Ev(ptr noundef nonnull align 8 dereferenceable(32) %6) #8
  tail call void @_ZN14cmCursesWidgetD2Ev(ptr noundef nonnull align 8 dereferenceable(60) %0) #8
  resume { ptr, i32 } %16

17:                                               ; preds = %10
  %18 = invoke i32 @set_field_fore(ptr noundef %12, i32 noundef 0)
          to label %.invoke unwind label %15

.invoke:                                          ; preds = %17, %13
  %19 = phi i32 [ 768, %13 ], [ 65536, %17 ]
  %20 = load ptr, ptr %11, align 8
  %21 = invoke i32 @set_field_back(ptr noundef %20, i32 noundef %19)
          to label %22 unwind label %15

22:                                               ; preds = %.invoke
  %23 = getelementptr inbounds i8, ptr %0, i64 48
  %24 = load ptr, ptr %23, align 8
  %25 = invoke i32 @field_opts_off(ptr noundef %24, i32 noundef 512)
          to label %26 unwind label %15

26:                                               ; preds = %22
  ret void
}